target datalayout = "e-m:e-p270:32:32-p271:32:32-p272:64:64-i64:64-i128:128-f80:128-n8:16:32:64-S128"
target triple = "x86_64-unknown-linux-gnu"

%"class.Imath_3_2::Vec3" = type { float, float, float }
%"class.Imf_3_2::RgbaOutputFile::ToYca" = type { %"class.std::mutex", ptr, i8, i8, i8, i32, i32, i32, i32, i32, i32, %"class.Imath_3_2::Vec3", ptr, [27 x ptr], ptr, ptr, i64, i64, i32, i32 }
%"class.std::mutex" = type { %"class.std::__mutex_base" }
%"class.std::__mutex_base" = type { %union.pthread_mutex_t }
%union.pthread_mutex_t = type { %struct.__pthread_mutex_s }
%struct.__pthread_mutex_s = type { i32, i32, i32, i32, i32, i16, i16, %struct.__pthread_internal_list }
%struct.__pthread_internal_list = type { ptr, ptr }

; Function Attrs: mustprogress nounwind uwtable
define hidden void @_ZN7Imf_3_214RgbaOutputFile5ToYca13rotateBuffersEv(ptr noundef nonnull align 8 dereferenceable(352) %this) #5 align 2 {
entry:
  %this.addr = alloca ptr, align 8
  %tmp = alloca ptr, align 8
  %i = alloca i32, align 4
  store ptr %this, ptr %this.addr, align 8
  %this1 = load ptr, ptr %this.addr, align 8
  %_buf = getelementptr inbounds %"class.Imf_3_2::RgbaOutputFile::ToYca", ptr %this1, i32 0, i32 13
  %arrayidx = getelementptr inbounds [27 x ptr], ptr %_buf, i64 0, i64 0
  %0 = load ptr, ptr %arrayidx, align 8
  store ptr %0, ptr %tmp, align 8
  store i32 0, ptr %i, align 4
  br label %for.cond

for.cond:                                         ; preds = %for.inc, %entry
  %1 = load i32, ptr %i, align 4
  %cmp = icmp slt i32 %1, 26
  br i1 %cmp, label %for.body, label %for.end

for.body:                                         ; preds = %for.cond
  %_buf2 = getelementptr inbounds %"class.Imf_3_2::RgbaOutputFile::ToYca", ptr %this1, i32 0, i32 13
  %2 = load i32, ptr %i, align 4
  %add = add nsw i32 %2, 1
  %idxprom = sext i32 %add to i64
  %arrayidx3 = getelementptr inbounds [27 x ptr], ptr %_buf2, i64 0, i64 %idxprom
  %3 = load ptr, ptr %arrayidx3, align 8
  %_buf4 = getelementptr inbounds %"class.Imf_3_2::RgbaOutputFile::ToYca", ptr %this1, i32 0, i32 13
  %4 = load i32, ptr %i, align 4
  %idxprom5 = sext i32 %4 to i64
  %arrayidx6 = getelementptr inbounds [27 x ptr], ptr %_buf4, i64 0, i64 %idxprom5
  store ptr %3, ptr %arrayidx6, align 8
  br label %for.inc

for.inc:                                          ; preds = %for.body
  %5 = load i32, ptr %i, align 4
  %inc = add nsw i32 %5, 1
  store i32 %inc, ptr %i, align 4
  br label %for.cond, !llvm.loop !15

for.end:                                          ; preds = %for.cond
  %6 = load ptr, ptr %tmp, align 8
  %_buf7 = getelementptr inbounds %"class.Imf_3_2::RgbaOutputFile::ToYca", ptr %this1, i32 0, i32 13
  %arrayidx8 = getelementptr inbounds [27 x ptr], ptr %_buf7, i64 0, i64 26
  store ptr %6, ptr %arrayidx8, align 8
  ret void
}

; Function Attrs: mustprogress nounwind uwtable
define hidden void @_ZN7Imf_3_214RgbaOutputFile5ToYca19duplicateLastBufferEv(ptr noundef nonnull align 8 dereferenceable(352) %this) #5 align 2 {
entry:
  %this.addr = alloca ptr, align 8
  store ptr %this, ptr %this.addr, align 8
  %this1 = load ptr, ptr %this.addr, align 8
  call void @_ZN7Imf_3_214RgbaOutputFile5ToYca13rotateBuffersEv(ptr noundef nonnull align 8 dereferenceable(352) %this1)
  %_buf = getelementptr inbounds %"class.Imf_3_2::RgbaOutputFile::ToYca", ptr %this1, i32 0, i32 13
  %arrayidx = getelementptr inbounds [27 x ptr], ptr %_buf, i64 0, i64 26
  %0 = load ptr, ptr %arrayidx, align 8
  %_buf2 = getelementptr inbounds %"class.Imf_3_2::RgbaOutputFile::ToYca", ptr %this1, i32 0, i32 13
  %arrayidx3 = getelementptr inbounds [27 x ptr], ptr %_buf2, i64 0, i64 25
  %1 = load ptr, ptr %arrayidx3, align 8
  %_width = getelementptr inbounds %"class.Imf_3_2::RgbaOutputFile::ToYca", ptr %this1, i32 0, i32 6
  %2 = load i32, ptr %_width, align 8
  %conv = sext i32 %2 to i64
  %mul = mul i64 %conv, 8
  call void @llvm.memcpy.p0.p0.i64(ptr align 2 %0, ptr align 2 %1, i64 %mul, i1 false)
  ret void
}